; Function Attrs: mustprogress nofree norecurse nosync nounwind willreturn memory(argmem: readwrite) uwtable
define void @ucfpos_setInt64IterationContext_77(ptr noundef %0, i64 noundef %1, ptr noundef captures(none) %2) local_unnamed_addr #18 {
  %4 = load i32, ptr %2, align 4, !tbaa !13
  %5 = icmp slt i32 %4, 1
  br i1 %5, label %6, label %_ZN6icu_7713IcuCApiHelperI25UConstrainedFieldPositionNS_29UConstrainedFieldPositionImplELi1430472192EE8validateEPS1_R10UErrorCode.exit.thread

6:                                                ; preds = %3
  %7 = icmp eq ptr %0, null
  br i1 %7, label %.sink.split.i.i, label %8

8:                                                ; preds = %6
  %9 = load i32, ptr %0, align 4, !tbaa !23
  %.not9.i.i = icmp eq i32 %9, 1430472192
  br i1 %.not9.i.i, label %_ZN6icu_7713IcuCApiHelperI25UConstrainedFieldPositionNS_29UConstrainedFieldPositionImplELi1430472192EE8validateEPS1_R10UErrorCode.exit, label %.sink.split.i.i

.sink.split.i.i:                                  ; preds = %8, %6
  %.sink.i.i = phi i32 [ 1, %6 ], [ 3, %8 ]
  store i32 %.sink.i.i, ptr %2, align 4, !tbaa !13
  br label %_ZN6icu_7713IcuCApiHelperI25UConstrainedFieldPositionNS_29UConstrainedFieldPositionImplELi1430472192EE8validateEPS1_R10UErrorCode.exit.thread

_ZN6icu_7713IcuCApiHelperI25UConstrainedFieldPositionNS_29UConstrainedFieldPositionImplELi1430472192EE8validateEPS1_R10UErrorCode.exit: ; preds = %8
  %10 = getelementptr inbounds nuw i8, ptr %0, i64 8
  store i64 %1, ptr %10, align 8, !tbaa !20
  br label %_ZN6icu_7713IcuCApiHelperI25UConstrainedFieldPositionNS_29UConstrainedFieldPositionImplELi1430472192EE8validateEPS1_R10UErrorCode.exit.thread

_ZN6icu_7713IcuCApiHelperI25UConstrainedFieldPositionNS_29UConstrainedFieldPositionImplELi1430472192EE8validateEPS1_R10UErrorCode.exit.thread: ; preds = %.sink.split.i.i, %3, %_ZN6icu_7713IcuCApiHelperI25UConstrainedFieldPositionNS_29UConstrainedFieldPositionImplELi1430472192EE8validateEPS1_R10UErrorCode.exit
  ret void
}